; ModuleID = '38/1377.c'
source_filename = "38/1377.c"
target datalayout = "e-m:e-p270:32:32-p271:32:32-p272:64:64-i64:64-f80:128-n8:16:32:64-S128"
target triple = "x86_64-pc-linux-gnu"

@.str = private unnamed_addr constant [3 x i8] c"%d\00", align 1
@.str.1 = private unnamed_addr constant [4 x i8] c"%lf\00", align 1
@.str.2 = private unnamed_addr constant [7 x i8] c"%.5lf\0A\00", align 1

; Function Attrs: noinline nounwind uwtable
define dso_local double @fangcha(i32 %0, double* %1) #0 {
  %3 = alloca i32, align 4
  %4 = alloca double*, align 8
  %5 = alloca double, align 8
  %6 = alloca double, align 8
  %7 = alloca i32, align 4
  store i32 %0, i32* %3, align 4
  store double* %1, double** %4, align 8
  store double 0.000000e+00, double* %5, align 8
  store double 0.000000e+00, double* %6, align 8
  store i32 0, i32* %7, align 4
  br label %8

8:                                                ; preds = %20, %2
  %9 = load i32, i32* %7, align 4
  %10 = load i32, i32* %3, align 4
  %11 = icmp slt i32 %9, %10
  br i1 %11, label %12, label %23

12:                                               ; preds = %8
  %13 = load double, double* %5, align 8
  %14 = load double*, double** %4, align 8
  %15 = load i32, i32* %7, align 4
  %16 = sext i32 %15 to i64
  %17 = getelementptr inbounds double, double* %14, i64 %16
  %18 = load double, double* %17, align 8
  %19 = fadd double %13, %18
  store double %19, double* %5, align 8
  br label %20

20:                                               ; preds = %12
  %21 = load i32, i32* %7, align 4
  %22 = add nsw i32 %21, 1
  store i32 %22, i32* %7, align 4
  br label %8

23:                                               ; preds = %8
  %24 = load double, double* %5, align 8
  %25 = load i32, i32* %3, align 4
  %26 = sitofp i32 %25 to double
  %27 = fdiv double %24, %26
  store double %27, double* %5, align 8
  store i32 0, i32* %7, align 4
  br label %28

28:                                               ; preds = %50, %23
  %29 = load i32, i32* %7, align 4
  %30 = load i32, i32* %3, align 4
  %31 = icmp slt i32 %29, %30
  br i1 %31, label %32, label %53

32:                                               ; preds = %28
  %33 = load double, double* %6, align 8
  %34 = load double*, double** %4, align 8
  %35 = load i32, i32* %7, align 4
  %36 = sext i32 %35 to i64
  %37 = getelementptr inbounds double, double* %34, i64 %36
  %38 = load double, double* %37, align 8
  %39 = load double, double* %5, align 8
  %40 = fsub double %38, %39
  %41 = load double*, double** %4, align 8
  %42 = load i32, i32* %7, align 4
  %43 = sext i32 %42 to i64
  %44 = getelementptr inbounds double, double* %41, i64 %43
  %45 = load double, double* %44, align 8
  %46 = load double, double* %5, align 8
  %47 = fsub double %45, %46
  %48 = fmul double %40, %47
  %49 = fadd double %33, %48
  store double %49, double* %6, align 8
  br label %50

50:                                               ; preds = %32
  %51 = load i32, i32* %7, align 4
  %52 = add nsw i32 %51, 1
  store i32 %52, i32* %7, align 4
  br label %28

53:                                               ; preds = %28
  %54 = load double, double* %6, align 8
  %55 = load i32, i32* %3, align 4
  %56 = sitofp i32 %55 to double
  %57 = fdiv double %54, %56
  %58 = call double @sqrt(double %57) #3
  store double %58, double* %6, align 8
  %59 = load double, double* %6, align 8
  ret double %59
}

; Function Attrs: nounwind
declare dso_local double @sqrt(double) #1

; Function Attrs: noinline nounwind uwtable
define dso_local i32 @main() #0 {
  %1 = alloca i32, align 4
  %2 = alloca i32, align 4
  %3 = alloca i32, align 4
  %4 = alloca i32, align 4
  %5 = alloca i32, align 4
  %6 = alloca [100 x double], align 16
  %7 = alloca double, align 8
  %8 = alloca double*, align 8
  store i32 0, i32* %1, align 4
  %9 = getelementptr inbounds [100 x double], [100 x double]* %6, i64 0, i64 0
  store double* %9, double** %8, align 8
  %10 = call i32 (i8*, ...) @__isoc99_scanf(i8* getelementptr inbounds ([3 x i8], [3 x i8]* @.str, i64 0, i64 0), i32* %2)
  store i32 1, i32* %5, align 4
  br label %11

11:                                               ; preds = %35, %0
  %12 = load i32, i32* %5, align 4
  %13 = load i32, i32* %2, align 4
  %14 = icmp sle i32 %12, %13
  br i1 %14, label %15, label %38

15:                                               ; preds = %11
  %16 = call i32 (i8*, ...) @__isoc99_scanf(i8* getelementptr inbounds ([3 x i8], [3 x i8]* @.str, i64 0, i64 0), i32* %3)
  store i32 0, i32* %4, align 4
  br label %17

17:                                               ; preds = %26, %15
  %18 = load i32, i32* %4, align 4
  %19 = load i32, i32* %3, align 4
  %20 = icmp slt i32 %18, %19
  br i1 %20, label %21, label %29

21:                                               ; preds = %17
  %22 = load i32, i32* %4, align 4
  %23 = sext i32 %22 to i64
  %24 = getelementptr inbounds [100 x double], [100 x double]* %6, i64 0, i64 %23
  %25 = call i32 (i8*, ...) @__isoc99_scanf(i8* getelementptr inbounds ([4 x i8], [4 x i8]* @.str.1, i64 0, i64 0), double* %24)
  br label %26

26:                                               ; preds = %21
  %27 = load i32, i32* %4, align 4
  %28 = add nsw i32 %27, 1
  store i32 %28, i32* %4, align 4
  br label %17

29:                                               ; preds = %17
  %30 = load i32, i32* %3, align 4
  %31 = load double*, double** %8, align 8
  %32 = call double @fangcha(i32 %30, double* %31)
  store double %32, double* %7, align 8
  %33 = load double, double* %7, align 8
  %34 = call i32 (i8*, ...) @printf(i8* getelementptr inbounds ([7 x i8], [7 x i8]* @.str.2, i64 0, i64 0), double %33)
  br label %35

35:                                               ; preds = %29
  %36 = load i32, i32* %5, align 4
  %37 = add nsw i32 %36, 1
  store i32 %37, i32* %5, align 4
  br label %11

38:                                               ; preds = %11
  %39 = load i32, i32* %1, align 4
  ret i32 %39
}

declare dso_local i32 @__isoc99_scanf(i8*, ...) #2

declare dso_local i32 @printf(i8*, ...) #2


!llvm.module.flags = !{!0}
!llvm.ident = !{!1}

!0 = !{i32 1, !"wchar_size", i32 4}
!1 = !{!"clang version 10.0.0-4ubuntu1 "}
